target datalayout = "e-m:e-p270:32:32-p271:32:32-p272:64:64-i64:64-i128:128-f80:128-n8:16:32:64-S128"
target triple = "x86_64-pc-linux-gnu"

; Function Attrs: nounwind uwtable
define dso_local void @bit_set(ptr noundef %0, i64 noundef %1) #0 {
  %3 = alloca ptr, align 8
  %4 = alloca i64, align 8
  store ptr %0, ptr %3, align 8
  store i64 %1, ptr %4, align 8
  br label %5

5:                                                ; preds = %2
  br label %6

6:                                                ; preds = %5
  br label %7

7:                                                ; preds = %6
  br label %8

8:                                                ; preds = %7
  %9 = load i64, ptr %4, align 8
  %10 = and i64 %9, 63
  %11 = shl i64 1, %10
  %12 = load ptr, ptr %3, align 8
  %13 = load i64, ptr %4, align 8
  %14 = ashr i64 %13, 6
  %15 = add nsw i64 %14, 2
  %16 = getelementptr inbounds i64, ptr %12, i64 %15
  %17 = load i64, ptr %16, align 8
  %18 = or i64 %17, %11
  store i64 %18, ptr %16, align 8
  ret void
}

; Function Attrs: nounwind uwtable
define dso_local void @bit_nset(ptr noundef %0, i64 noundef %1, i64 noundef %2) #0 {
  %4 = alloca ptr, align 8
  %5 = alloca i64, align 8
  %6 = alloca i64, align 8
  store ptr %0, ptr %4, align 8
  store i64 %1, ptr %5, align 8
  store i64 %2, ptr %6, align 8
  br label %7

7:                                                ; preds = %3
  br label %8

8:                                                ; preds = %7
  br label %9

9:                                                ; preds = %8
  br label %10

10:                                               ; preds = %9
  br label %11

11:                                               ; preds = %10
  br label %12

12:                                               ; preds = %11
  br label %13

13:                                               ; preds = %23, %12
  %14 = load i64, ptr %5, align 8
  %15 = load i64, ptr %6, align 8
  %16 = icmp sle i64 %14, %15
  br i1 %16, label %17, label %21

17:                                               ; preds = %13
  %18 = load i64, ptr %5, align 8
  %19 = srem i64 %18, 8
  %20 = icmp sgt i64 %19, 0
  br label %21

21:                                               ; preds = %17, %13
  %22 = phi i1 [ false, %13 ], [ %20, %17 ]
  br i1 %22, label %23, label %27

23:                                               ; preds = %21
  %24 = load ptr, ptr %4, align 8
  %25 = load i64, ptr %5, align 8
  %26 = add nsw i64 %25, 1
  store i64 %26, ptr %5, align 8
  call void @bit_set(ptr noundef %24, i64 noundef %25)
  br label %13, !llvm.loop !12

27:                                               ; preds = %21
  br label %28

28:                                               ; preds = %39, %27
  %29 = load i64, ptr %6, align 8
  %30 = load i64, ptr %5, align 8
  %31 = icmp sge i64 %29, %30
  br i1 %31, label %32, label %37

32:                                               ; preds = %28
  %33 = load i64, ptr %6, align 8
  %34 = add nsw i64 %33, 1
  %35 = srem i64 %34, 8
  %36 = icmp sgt i64 %35, 0
  br label %37

37:                                               ; preds = %32, %28
  %38 = phi i1 [ false, %28 ], [ %36, %32 ]
  br i1 %38, label %39, label %43

39:                                               ; preds = %37
  %40 = load ptr, ptr %4, align 8
  %41 = load i64, ptr %6, align 8
  %42 = add nsw i64 %41, -1
  store i64 %42, ptr %6, align 8
  call void @bit_set(ptr noundef %40, i64 noundef %41)
  br label %28, !llvm.loop !13

43:                                               ; preds = %37
  %44 = load i64, ptr %6, align 8
  %45 = load i64, ptr %5, align 8
  %46 = icmp sgt i64 %44, %45
  br i1 %46, label %47, label %58

47:                                               ; preds = %43
  %48 = load ptr, ptr %4, align 8
  %49 = getelementptr inbounds i64, ptr %48, i64 2
  %50 = load i64, ptr %5, align 8
  %51 = ashr i64 %50, 3
  %52 = getelementptr inbounds i8, ptr %49, i64 %51
  %53 = load i64, ptr %6, align 8
  %54 = load i64, ptr %5, align 8
  %55 = sub nsw i64 %53, %54
  %56 = add nsw i64 %55, 1
  %57 = sdiv i64 %56, 8
  call void @llvm.memset.p0.i64(ptr align 1 %52, i8 -1, i64 %57, i1 false)
  br label %58

58:                                               ; preds = %47, %43
  ret void
}