; Function Attrs: nofree norecurse nosync nounwind memory(argmem: readwrite) uwtable
define dso_local void @bit_nset(ptr noundef captures(none) %0, i64 noundef %1, i64 noundef %2) #2 {
  %invariant.gep = getelementptr i8, ptr %0, i64 16
  %.not20 = icmp sle i64 %1, %2
  %4 = and i64 %1, -9223372036854775801
  %5 = icmp sgt i64 %4, 0
  %or.cond21 = and i1 %.not20, %5
  br i1 %or.cond21, label %.lr.ph, label %.critedge.preheader

.critedge.preheader:                              ; preds = %.lr.ph, %3
  %.017.lcssa = phi i64 [ %1, %3 ], [ %6, %.lr.ph ]
  %.not1825 = icmp slt i64 %2, %.017.lcssa
  br i1 %.not1825, label %.critedge2, label %.lr.ph27

.lr.ph:                                           ; preds = %3, %.lr.ph
  %.01722 = phi i64 [ %6, %.lr.ph ], [ %1, %3 ]
  %6 = add nsw i64 %.01722, 1
  %7 = and i64 %.01722, 63
  %8 = shl nuw i64 1, %7
  %9 = ashr i64 %.01722, 6
  %gep = getelementptr i64, ptr %invariant.gep, i64 %9
  %10 = load i64, ptr %gep, align 8
  %11 = or i64 %10, %8
  store i64 %11, ptr %gep, align 8
  %.not = icmp slt i64 %.01722, %2
  %12 = and i64 %6, -9223372036854775801
  %13 = icmp sgt i64 %12, 0
  %or.cond = and i1 %.not, %13
  br i1 %or.cond, label %.lr.ph, label %.critedge.preheader, !llvm.loop !12

.lr.ph27:                                         ; preds = %.critedge.preheader, %.critedge
  %.026 = phi i64 [ %17, %.critedge ], [ %2, %.critedge.preheader ]
  %14 = add nsw i64 %.026, 1
  %15 = and i64 %14, -9223372036854775801
  %16 = icmp sgt i64 %15, 0
  br i1 %16, label %.critedge, label %.critedge2

.critedge:                                        ; preds = %.lr.ph27
  %17 = add nsw i64 %.026, -1
  %18 = and i64 %.026, 63
  %19 = shl nuw i64 1, %18
  %20 = ashr i64 %.026, 6
  %gep24 = getelementptr i64, ptr %invariant.gep, i64 %20
  %21 = load i64, ptr %gep24, align 8
  %22 = or i64 %21, %19
  store i64 %22, ptr %gep24, align 8
  %.not18.not = icmp sgt i64 %.026, %.017.lcssa
  br i1 %.not18.not, label %.lr.ph27, label %.critedge2, !llvm.loop !13

.critedge2:                                       ; preds = %.lr.ph27, %.critedge, %.critedge.preheader
  %.0.lcssa = phi i64 [ %2, %.critedge.preheader ], [ %17, %.critedge ], [ %.026, %.lr.ph27 ]
  %23 = icmp sgt i64 %.0.lcssa, %.017.lcssa
  br i1 %23, label %24, label %29

24:                                               ; preds = %.critedge2
  %25 = ashr i64 %.017.lcssa, 3
  %26 = getelementptr inbounds i8, ptr %invariant.gep, i64 %25
  %reass.sub = sub i64 %.0.lcssa, %.017.lcssa
  %27 = add i64 %reass.sub, 1
  %28 = sdiv i64 %27, 8
  tail call void @llvm.memset.p0.i64(ptr nonnull align 1 %26, i8 -1, i64 %28, i1 false)
  br label %29

29:                                               ; preds = %24, %.critedge2
  ret void
}